target datalayout = "e-m:e-p270:32:32-p271:32:32-p272:64:64-i64:64-i128:128-f80:128-n8:16:32:64-S128"
target triple = "x86_64-unknown-linux-gnu"

%"class.q::mbqi" = type { ptr, ptr, ptr, %"struct.q::mbqi::stats", %"class.q::model_fixer", %class.ref, %"struct.sat::no_drat_params", %class.ref.12, %class.scoped_ptr_vector.13, %class.scoped_ptr_vector.16, %class.obj_map.19, i32, i32, i32, i32, i32, i32, %class.vector.24, %class.vector.25 }
%"struct.q::mbqi::stats" = type { i32, i32 }
%"class.q::model_fixer" = type { %class.quantifier2macro_infos, ptr, ptr, ptr, %class.obj_map, %class.func_decl_dependencies, %class.obj_map.5, %class.map, %class.scoped_ptr_vector }
%class.quantifier2macro_infos = type { ptr }
%class.obj_map = type { %class.core_hashtable }
%class.core_hashtable = type <{ ptr, i32, i32, i32, [4 x i8] }>
%class.func_decl_dependencies = type { ptr, %class.obj_map.0 }
%class.obj_map.0 = type { %class.core_hashtable.1 }
%class.core_hashtable.1 = type <{ ptr, i32, i32, i32, [4 x i8] }>
%class.obj_map.5 = type { %class.core_hashtable.6 }
%class.core_hashtable.6 = type <{ ptr, i32, i32, i32, [4 x i8] }>
%class.map = type { %class.table2map }
%class.table2map = type { %class.core_hashtable.10 }
%class.core_hashtable.10 = type <{ ptr, i32, i32, i32, [4 x i8] }>
%class.scoped_ptr_vector = type { %class.ptr_vector }
%class.ptr_vector = type { %class.vector }
%class.vector = type { ptr }
%class.ref = type { ptr }
%"struct.sat::no_drat_params" = type { %class.params_ref }
%class.params_ref = type { ptr }
%class.ref.12 = type { ptr }
%class.scoped_ptr_vector.13 = type { %class.ptr_vector.14 }
%class.ptr_vector.14 = type { %class.vector.15 }
%class.vector.15 = type { ptr }
%class.scoped_ptr_vector.16 = type { %class.ptr_vector.17 }
%class.ptr_vector.17 = type { %class.vector.18 }
%class.vector.18 = type { ptr }
%class.obj_map.19 = type { %class.core_hashtable.20 }
%class.core_hashtable.20 = type <{ ptr, i32, i32, i32, [4 x i8] }>
%class.vector.24 = type { ptr }
%class.vector.25 = type { ptr }

@.str.8 = private unnamed_addr constant [21 x i8] c"q mbi instantiations\00", align 1
@.str.9 = private unnamed_addr constant [17 x i8] c"q mbi num checks\00", align 1

; Function Attrs: mustprogress nounwind uwtable
define linkonce_odr hidden noundef ptr @_ZNK3refI6solverEptEv(ptr noundef nonnull align 8 dereferenceable(8) %this) #4 comdat align 2 {
entry:
  %this.addr = alloca ptr, align 8
  store ptr %this, ptr %this.addr, align 8
  %this1 = load ptr, ptr %this.addr, align 8
  %m_ptr = getelementptr inbounds %class.ref.12, ptr %this1, i32 0, i32 0
  %0 = load ptr, ptr %m_ptr, align 8
  ret ptr %0
}

; Function Attrs: mustprogress nounwind uwtable
define linkonce_odr hidden noundef zeroext i1 @_ZNK3refI6solverEcvbEv(ptr noundef nonnull align 8 dereferenceable(8) %this) #4 comdat align 2 {
entry:
  %this.addr = alloca ptr, align 8
  store ptr %this, ptr %this.addr, align 8
  %this1 = load ptr, ptr %this.addr, align 8
  %m_ptr = getelementptr inbounds %class.ref.12, ptr %this1, i32 0, i32 0
  %0 = load ptr, ptr %m_ptr, align 8
  %cmp = icmp ne ptr %0, null
  ret i1 %cmp
}

; Function Attrs: mustprogress uwtable
define hidden void @_ZNK1q4mbqi18collect_statisticsER10statistics(ptr noundef nonnull align 8 dereferenceable(280) %this, ptr noundef nonnull align 8 dereferenceable(16) %st) #5 align 2 {
entry:
  %this.addr = alloca ptr, align 8
  %st.addr = alloca ptr, align 8
  store ptr %this, ptr %this.addr, align 8
  store ptr %st, ptr %st.addr, align 8
  %this1 = load ptr, ptr %this.addr, align 8
  %m_solver = getelementptr inbounds %"class.q::mbqi", ptr %this1, i32 0, i32 7
  %call = call noundef zeroext i1 @_ZNK3refI6solverEcvbEv(ptr noundef nonnull align 8 dereferenceable(8) %m_solver)
  br i1 %call, label %if.then, label %if.end

if.then:                                          ; preds = %entry
  %m_solver2 = getelementptr inbounds %"class.q::mbqi", ptr %this1, i32 0, i32 7
  %call3 = call noundef ptr @_ZNK3refI6solverEptEv(ptr noundef nonnull align 8 dereferenceable(8) %m_solver2)
  %0 = load ptr, ptr %st.addr, align 8
  %vtable = load ptr, ptr %call3, align 8
  %vfn = getelementptr inbounds ptr, ptr %vtable, i64 2
  %1 = load ptr, ptr %vfn, align 8
  call void %1(ptr noundef nonnull align 8 dereferenceable(72) %call3, ptr noundef nonnull align 8 dereferenceable(16) %0)
  br label %if.end

if.end:                                           ; preds = %if.then, %entry
  %2 = load ptr, ptr %st.addr, align 8
  %m_stats = getelementptr inbounds %"class.q::mbqi", ptr %this1, i32 0, i32 3
  %m_num_instantiations = getelementptr inbounds %"struct.q::mbqi::stats", ptr %m_stats, i32 0, i32 0
  %3 = load i32, ptr %m_num_instantiations, align 8
  call void @_ZN10statistics6updateEPKcj(ptr noundef nonnull align 8 dereferenceable(16) %2, ptr noundef @.str.8, i32 noundef %3)
  %4 = load ptr, ptr %st.addr, align 8
  %m_stats4 = getelementptr inbounds %"class.q::mbqi", ptr %this1, i32 0, i32 3
  %m_num_checks = getelementptr inbounds %"struct.q::mbqi::stats", ptr %m_stats4, i32 0, i32 1
  %5 = load i32, ptr %m_num_checks, align 4
  call void @_ZN10statistics6updateEPKcj(ptr noundef nonnull align 8 dereferenceable(16) %4, ptr noundef @.str.9, i32 noundef %5)
  ret void
}