; Function Attrs: mustprogress uwtable
define hidden void @_ZNK1q4mbqi18collect_statisticsER10statistics(ptr nocapture noundef nonnull readonly align 8 dereferenceable(280) %this, ptr noundef nonnull align 8 dereferenceable(16) %st) local_unnamed_addr #3 align 2 {
entry:
  %m_solver = getelementptr inbounds i8, ptr %this, i64 192
  %0 = load ptr, ptr %m_solver, align 8
  %cmp.i.not = icmp eq ptr %0, null
  br i1 %cmp.i.not, label %if.end, label %if.then

if.then:                                          ; preds = %entry
  %vtable = load ptr, ptr %0, align 8
  %vfn = getelementptr inbounds i8, ptr %vtable, i64 16
  %1 = load ptr, ptr %vfn, align 8
  tail call void %1(ptr noundef nonnull align 8 dereferenceable(72) %0, ptr noundef nonnull align 8 dereferenceable(16) %st)
  br label %if.end

if.end:                                           ; preds = %if.then, %entry
  %m_stats = getelementptr inbounds i8, ptr %this, i64 24
  %2 = load i32, ptr %m_stats, align 8
  tail call void @_ZN10statistics6updateEPKcj(ptr noundef nonnull align 8 dereferenceable(16) %st, ptr noundef nonnull @.str.8, i32 noundef %2)
  %m_num_checks = getelementptr inbounds i8, ptr %this, i64 28
  %3 = load i32, ptr %m_num_checks, align 4
  tail call void @_ZN10statistics6updateEPKcj(ptr noundef nonnull align 8 dereferenceable(16) %st, ptr noundef nonnull @.str.9, i32 noundef %3)
  ret void
}